; Function Attrs: mustprogress nofree norecurse nosync nounwind willreturn memory(argmem: write) uwtable
define void @_ZN9grpc_core16LameClientFilter5StateC2Ev(ptr noundef nonnull align 8 dereferenceable(80) %this) unnamed_addr #5 align 2 personality ptr @__gxx_personality_v0 {
_ZN4absl12lts_202308026StatusD2Ev.exit:
  store i64 0, ptr %this, align 8
  %state_tracker = getelementptr inbounds i8, ptr %this, i64 8
  store ptr @.str.3, ptr %state_tracker, align 8
  %state_.i = getelementptr inbounds i8, ptr %this, i64 16
  store i32 4, ptr %state_.i, align 8
  %status_.i = getelementptr inbounds i8, ptr %this, i64 24
  store i64 0, ptr %status_.i, align 8
  %0 = getelementptr inbounds i8, ptr %this, i64 40
  store i32 0, ptr %0, align 8
  %_M_parent.i.i.i.i.i.i = getelementptr inbounds i8, ptr %this, i64 48
  store ptr null, ptr %_M_parent.i.i.i.i.i.i, align 8
  %_M_left.i.i.i.i.i.i = getelementptr inbounds i8, ptr %this, i64 56
  store ptr %0, ptr %_M_left.i.i.i.i.i.i, align 8
  %_M_right.i.i.i.i.i.i = getelementptr inbounds i8, ptr %this, i64 64
  store ptr %0, ptr %_M_right.i.i.i.i.i.i, align 8
  %_M_node_count.i.i.i.i.i.i = getelementptr inbounds i8, ptr %this, i64 72
  store i64 0, ptr %_M_node_count.i.i.i.i.i.i, align 8
  ret void
}